	.file	"templateT.cpp"
	.local	_ZStL8__ioinit
	.comm	_ZStL8__ioinit,1,1
	.text
	.globl	_Z2prPi
	.type	_Z2prPi, @function
_Z2prPi:
.LFB1022:
	.cfi_startproc
	pushq	%rbp
	.cfi_def_cfa_offset 16
	.cfi_offset 6, -16
	movq	%rsp, %rbp
	.cfi_def_cfa_register 6
	subq	$32, %rsp
	movq	%rdi, -24(%rbp)
	movl	$0, -4(%rbp)
.L3:
	cmpl	$9, -4(%rbp)
	jg	.L4
	movl	-4(%rbp), %eax
	cltq
	leaq	0(,%rax,4), %rdx
	movq	-24(%rbp), %rax
	addq	%rdx, %rax
	movl	(%rax), %eax
	movl	%eax, %esi
	movl	$_ZSt4cout, %edi
	call	_ZNSolsEi
	movl	$_ZSt4endlIcSt11char_traitsIcEERSt13basic_ostreamIT_T0_ES6_, %esi
	movq	%rax, %rdi
	call	_ZNSolsEPFRSoS_E
	addl	$1, -4(%rbp)
	jmp	.L3
.L4:
	nop
	leave
	.cfi_def_cfa 7, 8
	ret
	.cfi_endproc
.LFE1022:
	.size	_Z2prPi, .-_Z2prPi
	.globl	main
	.type	main, @function
main:
.LFB1025:
	.cfi_startproc
	pushq	%rbp
	.cfi_def_cfa_offset 16
	.cfi_offset 6, -16
	movq	%rsp, %rbp
	.cfi_def_cfa_register 6
	subq	$64, %rsp
	movq	%fs:40, %rax
	movq	%rax, -8(%rbp)
	xorl	%eax, %eax
	movl	$1, -56(%rbp)
	movl	$3, -52(%rbp)
	movl	$0, -48(%rbp)
	movl	$9, -44(%rbp)
	movl	$8, -40(%rbp)
	movl	$7, -36(%rbp)
	movl	$6, -32(%rbp)
	movl	$5, -28(%rbp)
	movl	$4, -24(%rbp)
	movl	$3, -20(%rbp)
	movl	$2, -16(%rbp)
	movl	$1, -12(%rbp)
	leaq	-52(%rbp), %rdx
	leaq	-56(%rbp), %rax
	movq	%rdx, %rsi
	movq	%rax, %rdi
	call	_Z6mySwapIiEvRT_S1_
	movl	-56(%rbp), %eax
	movl	%eax, %esi
	movl	$_ZSt4cout, %edi
	call	_ZNSolsEi
	movl	$_ZSt4endlIcSt11char_traitsIcEERSt13basic_ostreamIT_T0_ES6_, %esi
	movq	%rax, %rdi
	call	_ZNSolsEPFRSoS_E
	movl	-52(%rbp), %eax
	movl	%eax, %esi
	movl	$_ZSt4cout, %edi
	call	_ZNSolsEi
	movl	$_ZSt4endlIcSt11char_traitsIcEERSt13basic_ostreamIT_T0_ES6_, %esi
	movq	%rax, %rdi
	call	_ZNSolsEPFRSoS_E
	leaq	-48(%rbp), %rax
	movl	$9, %edx
	movl	$0, %esi
	movq	%rax, %rdi
	call	_Z6mysortIiEvPT_ii
	leaq	-48(%rbp), %rax
	movq	%rax, %rdi
	call	_Z2prPi
	movl	$1, %eax
	movq	-8(%rbp), %rcx
	xorq	%fs:40, %rcx
	je	.L7
	call	__stack_chk_fail
.L7:
	leave
	.cfi_def_cfa 7, 8
	ret
	.cfi_endproc
.LFE1025:
	.size	main, .-main
	.section	.text._Z6mySwapIiEvRT_S1_,"axG",@progbits,_Z6mySwapIiEvRT_S1_,comdat
	.weak	_Z6mySwapIiEvRT_S1_
	.type	_Z6mySwapIiEvRT_S1_, @function
_Z6mySwapIiEvRT_S1_:
.LFB1028:
	.cfi_startproc
	pushq	%rbp
	.cfi_def_cfa_offset 16
	.cfi_offset 6, -16
	movq	%rsp, %rbp
	.cfi_def_cfa_register 6
	movq	%rdi, -24(%rbp)
	movq	%rsi, -32(%rbp)
	movq	-24(%rbp), %rax
	movl	(%rax), %eax
	movl	%eax, -4(%rbp)
	movq	-32(%rbp), %rax
	movl	(%rax), %edx
	movq	-24(%rbp), %rax
	movl	%edx, (%rax)
	movq	-32(%rbp), %rax
	movl	-4(%rbp), %edx
	movl	%edx, (%rax)
	nop
	popq	%rbp
	.cfi_def_cfa 7, 8
	ret
	.cfi_endproc
.LFE1028:
	.size	_Z6mySwapIiEvRT_S1_, .-_Z6mySwapIiEvRT_S1_
	.section	.text._Z6mysortIiEvPT_ii,"axG",@progbits,_Z6mysortIiEvPT_ii,comdat
	.weak	_Z6mysortIiEvPT_ii
	.type	_Z6mysortIiEvPT_ii, @function
_Z6mysortIiEvPT_ii:
.LFB1029:
	.cfi_startproc
	pushq	%rbp
	.cfi_def_cfa_offset 16
	.cfi_offset 6, -16
	movq	%rsp, %rbp
	.cfi_def_cfa_register 6
	subq	$32, %rsp
	movq	%rdi, -24(%rbp)
	movl	%esi, -28(%rbp)
	movl	%edx, -32(%rbp)
	movl	-28(%rbp), %eax
	cmpl	-32(%rbp), %eax
	jge	.L12
	movl	-32(%rbp), %edx
	movl	-28(%rbp), %ecx
	movq	-24(%rbp), %rax
	movl	%ecx, %esi
	movq	%rax, %rdi
	call	_Z5QsortIiEiPT_ii
	movl	%eax, -4(%rbp)
	movl	-4(%rbp), %eax
	leal	-1(%rax), %edx
	movl	-28(%rbp), %ecx
	movq	-24(%rbp), %rax
	movl	%ecx, %esi
	movq	%rax, %rdi
	call	_Z6mysortIiEvPT_ii
	movl	-4(%rbp), %eax
	leal	1(%rax), %ecx
	movl	-32(%rbp), %edx
	movq	-24(%rbp), %rax
	movl	%ecx, %esi
	movq	%rax, %rdi
	call	_Z6mysortIiEvPT_ii
	jmp	.L9
.L12:
	nop
.L9:
	leave
	.cfi_def_cfa 7, 8
	ret
	.cfi_endproc
.LFE1029:
	.size	_Z6mysortIiEvPT_ii, .-_Z6mysortIiEvPT_ii
	.section	.text._Z5QsortIiEiPT_ii,"axG",@progbits,_Z5QsortIiEiPT_ii,comdat
	.weak	_Z5QsortIiEiPT_ii
	.type	_Z5QsortIiEiPT_ii, @function
_Z5QsortIiEiPT_ii:
.LFB1032:
	.cfi_startproc
	pushq	%rbp
	.cfi_def_cfa_offset 16
	.cfi_offset 6, -16
	movq	%rsp, %rbp
	.cfi_def_cfa_register 6
	movq	%rdi, -24(%rbp)
	movl	%esi, -28(%rbp)
	movl	%edx, -32(%rbp)
	movl	-28(%rbp), %eax
	cltq
	leaq	0(,%rax,4), %rdx
	movq	-24(%rbp), %rax
	addq	%rdx, %rax
	movl	(%rax), %eax
	movl	%eax, -4(%rbp)
.L19:
	movl	-28(%rbp), %eax
	cmpl	-32(%rbp), %eax
	jge	.L14
.L16:
	movl	-32(%rbp), %eax
	cltq
	leaq	0(,%rax,4), %rdx
	movq	-24(%rbp), %rax
	addq	%rdx, %rax
	movl	(%rax), %eax
	cmpl	-4(%rbp), %eax
	jle	.L15
	movl	-28(%rbp), %eax
	cmpl	-32(%rbp), %eax
	jge	.L15
	subl	$1, -32(%rbp)
	jmp	.L16
.L15:
	movl	-28(%rbp), %eax
	cltq
	leaq	0(,%rax,4), %rdx
	movq	-24(%rbp), %rax
	addq	%rax, %rdx
	movl	-32(%rbp), %eax
	cltq
	leaq	0(,%rax,4), %rcx
	movq	-24(%rbp), %rax
	addq	%rcx, %rax
	movl	(%rax), %eax
	movl	%eax, (%rdx)
.L18:
	movl	-28(%rbp), %eax
	cltq
	leaq	0(,%rax,4), %rdx
	movq	-24(%rbp), %rax
	addq	%rdx, %rax
	movl	(%rax), %eax
	cmpl	-4(%rbp), %eax
	jge	.L17
	movl	-28(%rbp), %eax
	cmpl	-32(%rbp), %eax
	jge	.L17
	addl	$1, -28(%rbp)
	jmp	.L18
.L17:
	movl	-32(%rbp), %eax
	cltq
	leaq	0(,%rax,4), %rdx
	movq	-24(%rbp), %rax
	addq	%rax, %rdx
	movl	-28(%rbp), %eax
	cltq
	leaq	0(,%rax,4), %rcx
	movq	-24(%rbp), %rax
	addq	%rcx, %rax
	movl	(%rax), %eax
	movl	%eax, (%rdx)
	jmp	.L19
.L14:
	movl	-28(%rbp), %eax
	cltq
	leaq	0(,%rax,4), %rdx
	movq	-24(%rbp), %rax
	addq	%rax, %rdx
	movl	-4(%rbp), %eax
	movl	%eax, (%rdx)
	movl	-28(%rbp), %eax
	popq	%rbp
	.cfi_def_cfa 7, 8
	ret
	.cfi_endproc
.LFE1032:
	.size	_Z5QsortIiEiPT_ii, .-_Z5QsortIiEiPT_ii
	.text
	.type	_Z41__static_initialization_and_destruction_0ii, @function
_Z41__static_initialization_and_destruction_0ii:
.LFB1034:
	.cfi_startproc
	pushq	%rbp
	.cfi_def_cfa_offset 16
	.cfi_offset 6, -16
	movq	%rsp, %rbp
	.cfi_def_cfa_register 6
	subq	$16, %rsp
	movl	%edi, -4(%rbp)
	movl	%esi, -8(%rbp)
	cmpl	$1, -4(%rbp)
	jne	.L23
	cmpl	$65535, -8(%rbp)
	jne	.L23
	movl	$_ZStL8__ioinit, %edi
	call	_ZNSt8ios_base4InitC1Ev
	movl	$__dso_handle, %edx
	movl	$_ZStL8__ioinit, %esi
	movl	$_ZNSt8ios_base4InitD1Ev, %edi
	call	__cxa_atexit
.L23:
	nop
	leave
	.cfi_def_cfa 7, 8
	ret
	.cfi_endproc
.LFE1034:
	.size	_Z41__static_initialization_and_destruction_0ii, .-_Z41__static_initialization_and_destruction_0ii
	.type	_GLOBAL__sub_I__Z2prPi, @function
_GLOBAL__sub_I__Z2prPi:
.LFB1035:
	.cfi_startproc
	pushq	%rbp
	.cfi_def_cfa_offset 16
	.cfi_offset 6, -16
	movq	%rsp, %rbp
	.cfi_def_cfa_register 6
	movl	$65535, %esi
	movl	$1, %edi
	call	_Z41__static_initialization_and_destruction_0ii
	popq	%rbp
	.cfi_def_cfa 7, 8
	ret
	.cfi_endproc
.LFE1035:
	.size	_GLOBAL__sub_I__Z2prPi, .-_GLOBAL__sub_I__Z2prPi
	.section	.init_array,"aw"
	.align 8
	.quad	_GLOBAL__sub_I__Z2prPi
	.hidden	__dso_handle
	.ident	"GCC: (Ubuntu 5.4.0-6ubuntu1~16.04.2) 5.4.0 20160609"
	.section	.note.GNU-stack,"",@progbits
